target datalayout = "e-m:e-p270:32:32-p271:32:32-p272:64:64-i64:64-i128:128-f80:128-n8:16:32:64-S128"
target triple = "x86_64-pc-linux-gnu"

@mbedtls_md5_info = internal constant { i32, i8, i8, [2 x i8] } { i32 3, i8 16, i8 64, [2 x i8] zeroinitializer }, align 4
@mbedtls_ripemd160_info = internal constant { i32, i8, i8, [2 x i8] } { i32 4, i8 20, i8 64, [2 x i8] zeroinitializer }, align 4
@mbedtls_sha1_info = internal constant { i32, i8, i8, [2 x i8] } { i32 5, i8 20, i8 64, [2 x i8] zeroinitializer }, align 4
@mbedtls_sha224_info = internal constant { i32, i8, i8, [2 x i8] } { i32 8, i8 28, i8 64, [2 x i8] zeroinitializer }, align 4
@mbedtls_sha256_info = internal constant { i32, i8, i8, [2 x i8] } { i32 9, i8 32, i8 64, [2 x i8] zeroinitializer }, align 4
@mbedtls_sha384_info = internal constant { i32, i8, i8, [2 x i8] } { i32 10, i8 48, i8 -128, [2 x i8] zeroinitializer }, align 4
@mbedtls_sha512_info = internal constant { i32, i8, i8, [2 x i8] } { i32 11, i8 64, i8 -128, [2 x i8] zeroinitializer }, align 4
@mbedtls_sha3_224_info = internal constant { i32, i8, i8, [2 x i8] } { i32 16, i8 28, i8 -112, [2 x i8] zeroinitializer }, align 4
@mbedtls_sha3_256_info = internal constant { i32, i8, i8, [2 x i8] } { i32 17, i8 32, i8 -120, [2 x i8] zeroinitializer }, align 4
@mbedtls_sha3_384_info = internal constant { i32, i8, i8, [2 x i8] } { i32 18, i8 48, i8 104, [2 x i8] zeroinitializer }, align 4
@mbedtls_sha3_512_info = internal constant { i32, i8, i8, [2 x i8] } { i32 19, i8 64, i8 72, [2 x i8] zeroinitializer }, align 4

; Function Attrs: nounwind uwtable
define hidden ptr @mbedtls_md_info_from_type(i32 noundef %0) #0 {
  %2 = alloca ptr, align 8
  %3 = alloca i32, align 4
  store i32 %0, ptr %3, align 4, !tbaa !3
  %4 = load i32, ptr %3, align 4, !tbaa !3
  switch i32 %4, label %16 [
    i32 3, label %5
    i32 4, label %6
    i32 5, label %7
    i32 8, label %8
    i32 9, label %9
    i32 10, label %10
    i32 11, label %11
    i32 16, label %12
    i32 17, label %13
    i32 18, label %14
    i32 19, label %15
  ]

5:                                                ; preds = %1
  store ptr @mbedtls_md5_info, ptr %2, align 8
  br label %17

6:                                                ; preds = %1
  store ptr @mbedtls_ripemd160_info, ptr %2, align 8
  br label %17

7:                                                ; preds = %1
  store ptr @mbedtls_sha1_info, ptr %2, align 8
  br label %17

8:                                                ; preds = %1
  store ptr @mbedtls_sha224_info, ptr %2, align 8
  br label %17

9:                                                ; preds = %1
  store ptr @mbedtls_sha256_info, ptr %2, align 8
  br label %17

10:                                               ; preds = %1
  store ptr @mbedtls_sha384_info, ptr %2, align 8
  br label %17

11:                                               ; preds = %1
  store ptr @mbedtls_sha512_info, ptr %2, align 8
  br label %17

12:                                               ; preds = %1
  store ptr @mbedtls_sha3_224_info, ptr %2, align 8
  br label %17

13:                                               ; preds = %1
  store ptr @mbedtls_sha3_256_info, ptr %2, align 8
  br label %17

14:                                               ; preds = %1
  store ptr @mbedtls_sha3_384_info, ptr %2, align 8
  br label %17

15:                                               ; preds = %1
  store ptr @mbedtls_sha3_512_info, ptr %2, align 8
  br label %17

16:                                               ; preds = %1
  store ptr null, ptr %2, align 8
  br label %17

17:                                               ; preds = %16, %15, %14, %13, %12, %11, %10, %9, %8, %7, %6, %5
  %18 = load ptr, ptr %2, align 8
  ret ptr %18
}